target datalayout = "e-m:e-p270:32:32-p271:32:32-p272:64:64-i64:64-i128:128-f80:128-n8:16:32:64-S128"
target triple = "x86_64-pc-linux-gnu"

%class.Polynomial.17 = type { [3 x double] }

; Function Attrs: mustprogress nounwind uwtable
define noundef double @_ZNK10PolynomialILi2EEclEd(ptr noundef nonnull align 8 dereferenceable(24) %0, double noundef %1) #4 align 2 {
  %3 = alloca ptr, align 8
  %4 = alloca double, align 8
  store ptr %0, ptr %3, align 8
  store double %1, ptr %4, align 8
  %5 = load ptr, ptr %3, align 8
  %6 = getelementptr inbounds %class.Polynomial.17, ptr %5, i32 0, i32 0
  %7 = getelementptr inbounds [3 x double], ptr %6, i64 0, i64 0
  %8 = load double, ptr %7, align 8
  %9 = getelementptr inbounds %class.Polynomial.17, ptr %5, i32 0, i32 0
  %10 = getelementptr inbounds [3 x double], ptr %9, i64 0, i64 1
  %11 = load double, ptr %10, align 8
  %12 = getelementptr inbounds %class.Polynomial.17, ptr %5, i32 0, i32 0
  %13 = getelementptr inbounds [3 x double], ptr %12, i64 0, i64 2
  %14 = load double, ptr %13, align 8
  %15 = load double, ptr %4, align 8
  %16 = call double @llvm.fmuladd.f64(double %14, double %15, double %11)
  %17 = load double, ptr %4, align 8
  %18 = call double @llvm.fmuladd.f64(double %16, double %17, double %8)
  ret double %18
}