; Function Attrs: mustprogress nofree norecurse nosync nounwind willreturn memory(argmem: read) uwtable
define noundef double @_ZNK10PolynomialILi2EEclEd(ptr nocapture noundef nonnull readonly align 8 dereferenceable(24) %0, double noundef %1) local_unnamed_addr #16 align 2 {
  %3 = load double, ptr %0, align 8
  %4 = getelementptr inbounds i8, ptr %0, i64 8
  %5 = load double, ptr %4, align 8
  %6 = getelementptr inbounds i8, ptr %0, i64 16
  %7 = load double, ptr %6, align 8
  %8 = tail call double @llvm.fmuladd.f64(double %7, double %1, double %5)
  %9 = tail call double @llvm.fmuladd.f64(double %8, double %1, double %3)
  ret double %9
}